((lp0
(i__main__
Player
p1
(dp2
S'pos_x'
p3
I340
sS'pos_y'
p4
I475
sS'image_path'
p5
S'ship.png'
p6
sS'image'
p7
I0
sS'collided'
p8
I0
sS'game'
p9
I0
sS'size_x'
p10
I50
sS'size_y'
p11
I50
sS'health'
p12
I100
sS'speed'
p13
I15
sba(i__main__
Enemy2
p14
(dp15
g3
I-14
sg4
I19
sg5
S'enemy2.png'
p16
sg12
I10
sg7
I0
sS'direction'
p17
I1
sg8
I0
sg9
I0
sS'speed_x'
p18
I17
sg10
I50
sg11
I50
sS'speed_y'
p19
I19
sg13
I15
sba(i__main__
Enemy2
p20
(dp21
g3
I553
sg4
I0
sg5
g16
sg12
I10
sg7
I0
sg17
I1
sg8
I0
sg9
I0
sg18
I11
sg10
I50
sg11
I50
sg19
I10
sg13
I15
sba(i__main__
Enemy3
p22
(dp23
g3
I340
sg4
I225
sg5
S'enemy3.png'
p24
sg12
I5
sg7
I0
sg17
I-1
sg8
I0
sg9
I0
sg18
I51
sg10
I50
sg11
I50
sg19
I9
sg13
I15
sba(i__main__
Enemy2Bullet
p25
(dp26
g3
I249
sg4
I235
sg5
S'enemy2bullet.png'
p27
sg7
I0
sg19
I15
sg8
I0
sS'damage'
p28
I20
sg9
I0
sg18
I0
sg10
I9
sg11
I16
sg13
I15
sbaI3
I0
tp29
.